target datalayout = "e-m:e-p270:32:32-p271:32:32-p272:64:64-i64:64-i128:128-f80:128-n8:16:32:64-S128"
target triple = "x86_64-pc-linux-gnu"

%struct.lstopo_color_palette = type { %struct.lstopo_color, %struct.lstopo_color, %struct.lstopo_color, %struct.lstopo_color, %struct.lstopo_color, %struct.lstopo_color, %struct.lstopo_color, %struct.lstopo_color, %struct.lstopo_color, %struct.lstopo_color, %struct.lstopo_color, %struct.lstopo_color, %struct.lstopo_color, %struct.lstopo_color, %struct.lstopo_color, %struct.lstopo_color, %struct.lstopo_color, %struct.lstopo_color, %struct.lstopo_color }
%struct.lstopo_color = type { i32, i32, i32, i32, %union.lstopo_color_private_u, ptr }
%union.lstopo_color_private_u = type { %struct.lstopo_color_private_ascii_s }
%struct.lstopo_color_private_ascii_s = type { i32 }
%struct.lstopo_output = type { ptr, i32, i32, i32, ptr, i32, i32, i32, i32, i32, i32, i32, i32, ptr, ptr, i32, i32, i64, i64, i64, i32, [3 x [128 x i8]], i32, i32, ptr, i32, i32, i32, i32, i32, i32, %struct.hwloc_calc_level, i32, i32, i32, i64, [256 x i8], i32, i32, i32, i32, i32, float, [20 x i32], i32, i32, i32, [20 x i32], i32, [20 x i32], i32, [20 x i32], i32, i32, i32, i32, ptr, ptr, i32, [20 x i32], [20 x i32], [20 x i32], ptr, ptr, i64, ptr, i32, i32, i32 }
%struct.hwloc_calc_level = type { i32, i32, %union.hwloc_obj_attr_u, [32 x i8], i32, i32, i32, i32 }
%union.hwloc_obj_attr_u = type { %struct.hwloc_numanode_attr_s, [24 x i8] }
%struct.hwloc_numanode_attr_s = type { i64, i32, ptr }

@stderr = external global ptr, align 8
@.str.7 = private unnamed_addr constant [8 x i8] c"machine\00", align 1
@.str.8 = private unnamed_addr constant [6 x i8] c"group\00", align 1
@.str.9 = private unnamed_addr constant [8 x i8] c"package\00", align 1
@.str.10 = private unnamed_addr constant [17 x i8] c"group_in_package\00", align 1
@.str.11 = private unnamed_addr constant [4 x i8] c"die\00", align 1
@.str.12 = private unnamed_addr constant [5 x i8] c"core\00", align 1
@.str.13 = private unnamed_addr constant [3 x i8] c"pu\00", align 1
@.str.14 = private unnamed_addr constant [9 x i8] c"numanode\00", align 1
@.str.15 = private unnamed_addr constant [9 x i8] c"memories\00", align 1
@.str.16 = private unnamed_addr constant [6 x i8] c"cache\00", align 1
@.str.17 = private unnamed_addr constant [7 x i8] c"pcidev\00", align 1
@.str.18 = private unnamed_addr constant [6 x i8] c"osdev\00", align 1
@.str.19 = private unnamed_addr constant [7 x i8] c"bridge\00", align 1
@.str.20 = private unnamed_addr constant [5 x i8] c"misc\00", align 1
@.str.21 = private unnamed_addr constant [48 x i8] c"Unrecognized palette color name `%s', ignoring\0A\00", align 1

; Function Attrs: nounwind uwtable
define hidden void @lstopo_palette_set_color(ptr noundef %0, i32 noundef %1) #0 {
  %3 = alloca ptr, align 8
  %4 = alloca i32, align 4
  store ptr %0, ptr %3, align 8, !tbaa !20
  store i32 %1, ptr %4, align 4, !tbaa !18
  %5 = load i32, ptr %4, align 4, !tbaa !18
  %6 = lshr i32 %5, 16
  %7 = and i32 %6, 255
  %8 = load ptr, ptr %3, align 8, !tbaa !20
  %9 = getelementptr inbounds nuw %struct.lstopo_color, ptr %8, i32 0, i32 0
  store i32 %7, ptr %9, align 8, !tbaa !9
  %10 = load i32, ptr %4, align 4, !tbaa !18
  %11 = lshr i32 %10, 8
  %12 = and i32 %11, 255
  %13 = load ptr, ptr %3, align 8, !tbaa !20
  %14 = getelementptr inbounds nuw %struct.lstopo_color, ptr %13, i32 0, i32 1
  store i32 %12, ptr %14, align 4, !tbaa !13
  %15 = load i32, ptr %4, align 4, !tbaa !18
  %16 = lshr i32 %15, 0
  %17 = and i32 %16, 255
  %18 = load ptr, ptr %3, align 8, !tbaa !20
  %19 = getelementptr inbounds nuw %struct.lstopo_color, ptr %18, i32 0, i32 2
  store i32 %17, ptr %19, align 8, !tbaa !14
  ret void
}

; Function Attrs: nounwind uwtable
define hidden void @lstopo_palette_set_color_by_name(ptr noundef %0, ptr noundef %1, i32 noundef %2) #0 {
  %4 = alloca ptr, align 8
  %5 = alloca ptr, align 8
  %6 = alloca i32, align 4
  store ptr %0, ptr %4, align 8, !tbaa !4
  store ptr %1, ptr %5, align 8, !tbaa !33
  store i32 %2, ptr %6, align 4, !tbaa !18
  %7 = load ptr, ptr %5, align 8, !tbaa !33
  %8 = call i32 @strcasecmp(ptr noundef %7, ptr noundef @.str.7) #11
  %9 = icmp ne i32 %8, 0
  br i1 %9, label %16, label %10

10:                                               ; preds = %3
  %11 = load ptr, ptr %4, align 8, !tbaa !4
  %12 = getelementptr inbounds nuw %struct.lstopo_output, ptr %11, i32 0, i32 62
  %13 = load ptr, ptr %12, align 8, !tbaa !21
  %14 = getelementptr inbounds nuw %struct.lstopo_color_palette, ptr %13, i32 0, i32 2
  %15 = load i32, ptr %6, align 4, !tbaa !18
  call void @lstopo_palette_set_color(ptr noundef %14, i32 noundef %15)
  br label %163

16:                                               ; preds = %3
  %17 = load ptr, ptr %5, align 8, !tbaa !33
  %18 = call i32 @strcasecmp(ptr noundef %17, ptr noundef @.str.8) #11
  %19 = icmp ne i32 %18, 0
  br i1 %19, label %26, label %20

20:                                               ; preds = %16
  %21 = load ptr, ptr %4, align 8, !tbaa !4
  %22 = getelementptr inbounds nuw %struct.lstopo_output, ptr %21, i32 0, i32 62
  %23 = load ptr, ptr %22, align 8, !tbaa !21
  %24 = getelementptr inbounds nuw %struct.lstopo_color_palette, ptr %23, i32 0, i32 3
  %25 = load i32, ptr %6, align 4, !tbaa !18
  call void @lstopo_palette_set_color(ptr noundef %24, i32 noundef %25)
  br label %162

26:                                               ; preds = %16
  %27 = load ptr, ptr %5, align 8, !tbaa !33
  %28 = call i32 @strcasecmp(ptr noundef %27, ptr noundef @.str.9) #11
  %29 = icmp ne i32 %28, 0
  br i1 %29, label %36, label %30

30:                                               ; preds = %26
  %31 = load ptr, ptr %4, align 8, !tbaa !4
  %32 = getelementptr inbounds nuw %struct.lstopo_output, ptr %31, i32 0, i32 62
  %33 = load ptr, ptr %32, align 8, !tbaa !21
  %34 = getelementptr inbounds nuw %struct.lstopo_color_palette, ptr %33, i32 0, i32 4
  %35 = load i32, ptr %6, align 4, !tbaa !18
  call void @lstopo_palette_set_color(ptr noundef %34, i32 noundef %35)
  br label %161

36:                                               ; preds = %26
  %37 = load ptr, ptr %5, align 8, !tbaa !33
  %38 = call i32 @strcasecmp(ptr noundef %37, ptr noundef @.str.10) #11
  %39 = icmp ne i32 %38, 0
  br i1 %39, label %46, label %40

40:                                               ; preds = %36
  %41 = load ptr, ptr %4, align 8, !tbaa !4
  %42 = getelementptr inbounds nuw %struct.lstopo_output, ptr %41, i32 0, i32 62
  %43 = load ptr, ptr %42, align 8, !tbaa !21
  %44 = getelementptr inbounds nuw %struct.lstopo_color_palette, ptr %43, i32 0, i32 5
  %45 = load i32, ptr %6, align 4, !tbaa !18
  call void @lstopo_palette_set_color(ptr noundef %44, i32 noundef %45)
  br label %160

46:                                               ; preds = %36
  %47 = load ptr, ptr %5, align 8, !tbaa !33
  %48 = call i32 @strcasecmp(ptr noundef %47, ptr noundef @.str.11) #11
  %49 = icmp ne i32 %48, 0
  br i1 %49, label %56, label %50

50:                                               ; preds = %46
  %51 = load ptr, ptr %4, align 8, !tbaa !4
  %52 = getelementptr inbounds nuw %struct.lstopo_output, ptr %51, i32 0, i32 62
  %53 = load ptr, ptr %52, align 8, !tbaa !21
  %54 = getelementptr inbounds nuw %struct.lstopo_color_palette, ptr %53, i32 0, i32 6
  %55 = load i32, ptr %6, align 4, !tbaa !18
  call void @lstopo_palette_set_color(ptr noundef %54, i32 noundef %55)
  br label %159

56:                                               ; preds = %46
  %57 = load ptr, ptr %5, align 8, !tbaa !33
  %58 = call i32 @strcasecmp(ptr noundef %57, ptr noundef @.str.12) #11
  %59 = icmp ne i32 %58, 0
  br i1 %59, label %66, label %60

60:                                               ; preds = %56
  %61 = load ptr, ptr %4, align 8, !tbaa !4
  %62 = getelementptr inbounds nuw %struct.lstopo_output, ptr %61, i32 0, i32 62
  %63 = load ptr, ptr %62, align 8, !tbaa !21
  %64 = getelementptr inbounds nuw %struct.lstopo_color_palette, ptr %63, i32 0, i32 7
  %65 = load i32, ptr %6, align 4, !tbaa !18
  call void @lstopo_palette_set_color(ptr noundef %64, i32 noundef %65)
  br label %158

66:                                               ; preds = %56
  %67 = load ptr, ptr %5, align 8, !tbaa !33
  %68 = call i32 @strcasecmp(ptr noundef %67, ptr noundef @.str.13) #11
  %69 = icmp ne i32 %68, 0
  br i1 %69, label %76, label %70

70:                                               ; preds = %66
  %71 = load ptr, ptr %4, align 8, !tbaa !4
  %72 = getelementptr inbounds nuw %struct.lstopo_output, ptr %71, i32 0, i32 62
  %73 = load ptr, ptr %72, align 8, !tbaa !21
  %74 = getelementptr inbounds nuw %struct.lstopo_color_palette, ptr %73, i32 0, i32 8
  %75 = load i32, ptr %6, align 4, !tbaa !18
  call void @lstopo_palette_set_color(ptr noundef %74, i32 noundef %75)
  br label %157

76:                                               ; preds = %66
  %77 = load ptr, ptr %5, align 8, !tbaa !33
  %78 = call i32 @strcasecmp(ptr noundef %77, ptr noundef @.str.14) #11
  %79 = icmp ne i32 %78, 0
  br i1 %79, label %86, label %80

80:                                               ; preds = %76
  %81 = load ptr, ptr %4, align 8, !tbaa !4
  %82 = getelementptr inbounds nuw %struct.lstopo_output, ptr %81, i32 0, i32 62
  %83 = load ptr, ptr %82, align 8, !tbaa !21
  %84 = getelementptr inbounds nuw %struct.lstopo_color_palette, ptr %83, i32 0, i32 9
  %85 = load i32, ptr %6, align 4, !tbaa !18
  call void @lstopo_palette_set_color(ptr noundef %84, i32 noundef %85)
  br label %156

86:                                               ; preds = %76
  %87 = load ptr, ptr %5, align 8, !tbaa !33
  %88 = call i32 @strcasecmp(ptr noundef %87, ptr noundef @.str.15) #11
  %89 = icmp ne i32 %88, 0
  br i1 %89, label %96, label %90

90:                                               ; preds = %86
  %91 = load ptr, ptr %4, align 8, !tbaa !4
  %92 = getelementptr inbounds nuw %struct.lstopo_output, ptr %91, i32 0, i32 62
  %93 = load ptr, ptr %92, align 8, !tbaa !21
  %94 = getelementptr inbounds nuw %struct.lstopo_color_palette, ptr %93, i32 0, i32 10
  %95 = load i32, ptr %6, align 4, !tbaa !18
  call void @lstopo_palette_set_color(ptr noundef %94, i32 noundef %95)
  br label %155

96:                                               ; preds = %86
  %97 = load ptr, ptr %5, align 8, !tbaa !33
  %98 = call i32 @strcasecmp(ptr noundef %97, ptr noundef @.str.16) #11
  %99 = icmp ne i32 %98, 0
  br i1 %99, label %106, label %100

100:                                              ; preds = %96
  %101 = load ptr, ptr %4, align 8, !tbaa !4
  %102 = getelementptr inbounds nuw %struct.lstopo_output, ptr %101, i32 0, i32 62
  %103 = load ptr, ptr %102, align 8, !tbaa !21
  %104 = getelementptr inbounds nuw %struct.lstopo_color_palette, ptr %103, i32 0, i32 11
  %105 = load i32, ptr %6, align 4, !tbaa !18
  call void @lstopo_palette_set_color(ptr noundef %104, i32 noundef %105)
  br label %154

106:                                              ; preds = %96
  %107 = load ptr, ptr %5, align 8, !tbaa !33
  %108 = call i32 @strcasecmp(ptr noundef %107, ptr noundef @.str.17) #11
  %109 = icmp ne i32 %108, 0
  br i1 %109, label %116, label %110

110:                                              ; preds = %106
  %111 = load ptr, ptr %4, align 8, !tbaa !4
  %112 = getelementptr inbounds nuw %struct.lstopo_output, ptr %111, i32 0, i32 62
  %113 = load ptr, ptr %112, align 8, !tbaa !21
  %114 = getelementptr inbounds nuw %struct.lstopo_color_palette, ptr %113, i32 0, i32 12
  %115 = load i32, ptr %6, align 4, !tbaa !18
  call void @lstopo_palette_set_color(ptr noundef %114, i32 noundef %115)
  br label %153

116:                                              ; preds = %106
  %117 = load ptr, ptr %5, align 8, !tbaa !33
  %118 = call i32 @strcasecmp(ptr noundef %117, ptr noundef @.str.18) #11
  %119 = icmp ne i32 %118, 0
  br i1 %119, label %126, label %120

120:                                              ; preds = %116
  %121 = load ptr, ptr %4, align 8, !tbaa !4
  %122 = getelementptr inbounds nuw %struct.lstopo_output, ptr %121, i32 0, i32 62
  %123 = load ptr, ptr %122, align 8, !tbaa !21
  %124 = getelementptr inbounds nuw %struct.lstopo_color_palette, ptr %123, i32 0, i32 13
  %125 = load i32, ptr %6, align 4, !tbaa !18
  call void @lstopo_palette_set_color(ptr noundef %124, i32 noundef %125)
  br label %152

126:                                              ; preds = %116
  %127 = load ptr, ptr %5, align 8, !tbaa !33
  %128 = call i32 @strcasecmp(ptr noundef %127, ptr noundef @.str.19) #11
  %129 = icmp ne i32 %128, 0
  br i1 %129, label %136, label %130

130:                                              ; preds = %126
  %131 = load ptr, ptr %4, align 8, !tbaa !4
  %132 = getelementptr inbounds nuw %struct.lstopo_output, ptr %131, i32 0, i32 62
  %133 = load ptr, ptr %132, align 8, !tbaa !21
  %134 = getelementptr inbounds nuw %struct.lstopo_color_palette, ptr %133, i32 0, i32 14
  %135 = load i32, ptr %6, align 4, !tbaa !18
  call void @lstopo_palette_set_color(ptr noundef %134, i32 noundef %135)
  br label %151

136:                                              ; preds = %126
  %137 = load ptr, ptr %5, align 8, !tbaa !33
  %138 = call i32 @strcasecmp(ptr noundef %137, ptr noundef @.str.20) #11
  %139 = icmp ne i32 %138, 0
  br i1 %139, label %146, label %140

140:                                              ; preds = %136
  %141 = load ptr, ptr %4, align 8, !tbaa !4
  %142 = getelementptr inbounds nuw %struct.lstopo_output, ptr %141, i32 0, i32 62
  %143 = load ptr, ptr %142, align 8, !tbaa !21
  %144 = getelementptr inbounds nuw %struct.lstopo_color_palette, ptr %143, i32 0, i32 15
  %145 = load i32, ptr %6, align 4, !tbaa !18
  call void @lstopo_palette_set_color(ptr noundef %144, i32 noundef %145)
  br label %150

146:                                              ; preds = %136
  %147 = load ptr, ptr @stderr, align 8, !tbaa !34
  %148 = load ptr, ptr %5, align 8, !tbaa !33
  %149 = call i32 (ptr, ptr, ...) @fprintf(ptr noundef %147, ptr noundef @.str.21, ptr noundef %148) #12
  br label %150

150:                                              ; preds = %146, %140
  br label %151

151:                                              ; preds = %150, %130
  br label %152

152:                                              ; preds = %151, %120
  br label %153

153:                                              ; preds = %152, %110
  br label %154

154:                                              ; preds = %153, %100
  br label %155

155:                                              ; preds = %154, %90
  br label %156

156:                                              ; preds = %155, %80
  br label %157

157:                                              ; preds = %156, %70
  br label %158

158:                                              ; preds = %157, %60
  br label %159

159:                                              ; preds = %158, %50
  br label %160

160:                                              ; preds = %159, %40
  br label %161

161:                                              ; preds = %160, %30
  br label %162

162:                                              ; preds = %161, %20
  br label %163

163:                                              ; preds = %162, %10
  ret void
}