; Function Attrs: nofree nounwind uwtable
define hidden void @lstopo_palette_set_color_by_name(ptr noundef readonly captures(none) %0, ptr noundef %1, i32 noundef %2) local_unnamed_addr #3 {
  %4 = tail call i32 @strcasecmp(ptr noundef %1, ptr noundef nonnull @.str.7) #24
  %.not = icmp eq i32 %4, 0
  br i1 %.not, label %5, label %16

5:                                                ; preds = %3
  %6 = getelementptr inbounds nuw i8, ptr %0, i64 1576
  %7 = load ptr, ptr %6, align 8, !tbaa !8
  %8 = getelementptr inbounds nuw i8, ptr %7, i64 64
  %9 = lshr i32 %2, 16
  %10 = and i32 %9, 255
  store i32 %10, ptr %8, align 8, !tbaa !22
  %11 = lshr i32 %2, 8
  %12 = and i32 %11, 255
  %13 = getelementptr inbounds nuw i8, ptr %7, i64 68
  store i32 %12, ptr %13, align 4, !tbaa !25
  %14 = and i32 %2, 255
  %15 = getelementptr inbounds nuw i8, ptr %7, i64 72
  store i32 %14, ptr %15, align 8, !tbaa !26
  br label %188

16:                                               ; preds = %3
  %17 = tail call i32 @strcasecmp(ptr noundef %1, ptr noundef nonnull @.str.8) #24
  %.not42 = icmp eq i32 %17, 0
  br i1 %.not42, label %18, label %29

18:                                               ; preds = %16
  %19 = getelementptr inbounds nuw i8, ptr %0, i64 1576
  %20 = load ptr, ptr %19, align 8, !tbaa !8
  %21 = getelementptr inbounds nuw i8, ptr %20, i64 96
  %22 = lshr i32 %2, 16
  %23 = and i32 %22, 255
  store i32 %23, ptr %21, align 8, !tbaa !22
  %24 = lshr i32 %2, 8
  %25 = and i32 %24, 255
  %26 = getelementptr inbounds nuw i8, ptr %20, i64 100
  store i32 %25, ptr %26, align 4, !tbaa !25
  %27 = and i32 %2, 255
  %28 = getelementptr inbounds nuw i8, ptr %20, i64 104
  store i32 %27, ptr %28, align 8, !tbaa !26
  br label %188

29:                                               ; preds = %16
  %30 = tail call i32 @strcasecmp(ptr noundef %1, ptr noundef nonnull @.str.9) #24
  %.not43 = icmp eq i32 %30, 0
  br i1 %.not43, label %31, label %42

31:                                               ; preds = %29
  %32 = getelementptr inbounds nuw i8, ptr %0, i64 1576
  %33 = load ptr, ptr %32, align 8, !tbaa !8
  %34 = getelementptr inbounds nuw i8, ptr %33, i64 128
  %35 = lshr i32 %2, 16
  %36 = and i32 %35, 255
  store i32 %36, ptr %34, align 8, !tbaa !22
  %37 = lshr i32 %2, 8
  %38 = and i32 %37, 255
  %39 = getelementptr inbounds nuw i8, ptr %33, i64 132
  store i32 %38, ptr %39, align 4, !tbaa !25
  %40 = and i32 %2, 255
  %41 = getelementptr inbounds nuw i8, ptr %33, i64 136
  store i32 %40, ptr %41, align 8, !tbaa !26
  br label %188

42:                                               ; preds = %29
  %43 = tail call i32 @strcasecmp(ptr noundef %1, ptr noundef nonnull @.str.10) #24
  %.not44 = icmp eq i32 %43, 0
  br i1 %.not44, label %44, label %55

44:                                               ; preds = %42
  %45 = getelementptr inbounds nuw i8, ptr %0, i64 1576
  %46 = load ptr, ptr %45, align 8, !tbaa !8
  %47 = getelementptr inbounds nuw i8, ptr %46, i64 160
  %48 = lshr i32 %2, 16
  %49 = and i32 %48, 255
  store i32 %49, ptr %47, align 8, !tbaa !22
  %50 = lshr i32 %2, 8
  %51 = and i32 %50, 255
  %52 = getelementptr inbounds nuw i8, ptr %46, i64 164
  store i32 %51, ptr %52, align 4, !tbaa !25
  %53 = and i32 %2, 255
  %54 = getelementptr inbounds nuw i8, ptr %46, i64 168
  store i32 %53, ptr %54, align 8, !tbaa !26
  br label %188

55:                                               ; preds = %42
  %56 = tail call i32 @strcasecmp(ptr noundef %1, ptr noundef nonnull @.str.11) #24
  %.not45 = icmp eq i32 %56, 0
  br i1 %.not45, label %57, label %68

57:                                               ; preds = %55
  %58 = getelementptr inbounds nuw i8, ptr %0, i64 1576
  %59 = load ptr, ptr %58, align 8, !tbaa !8
  %60 = getelementptr inbounds nuw i8, ptr %59, i64 192
  %61 = lshr i32 %2, 16
  %62 = and i32 %61, 255
  store i32 %62, ptr %60, align 8, !tbaa !22
  %63 = lshr i32 %2, 8
  %64 = and i32 %63, 255
  %65 = getelementptr inbounds nuw i8, ptr %59, i64 196
  store i32 %64, ptr %65, align 4, !tbaa !25
  %66 = and i32 %2, 255
  %67 = getelementptr inbounds nuw i8, ptr %59, i64 200
  store i32 %66, ptr %67, align 8, !tbaa !26
  br label %188

68:                                               ; preds = %55
  %69 = tail call i32 @strcasecmp(ptr noundef %1, ptr noundef nonnull @.str.12) #24
  %.not46 = icmp eq i32 %69, 0
  br i1 %.not46, label %70, label %81

70:                                               ; preds = %68
  %71 = getelementptr inbounds nuw i8, ptr %0, i64 1576
  %72 = load ptr, ptr %71, align 8, !tbaa !8
  %73 = getelementptr inbounds nuw i8, ptr %72, i64 224
  %74 = lshr i32 %2, 16
  %75 = and i32 %74, 255
  store i32 %75, ptr %73, align 8, !tbaa !22
  %76 = lshr i32 %2, 8
  %77 = and i32 %76, 255
  %78 = getelementptr inbounds nuw i8, ptr %72, i64 228
  store i32 %77, ptr %78, align 4, !tbaa !25
  %79 = and i32 %2, 255
  %80 = getelementptr inbounds nuw i8, ptr %72, i64 232
  store i32 %79, ptr %80, align 8, !tbaa !26
  br label %188

81:                                               ; preds = %68
  %82 = tail call i32 @strcasecmp(ptr noundef %1, ptr noundef nonnull @.str.13) #24
  %.not47 = icmp eq i32 %82, 0
  br i1 %.not47, label %83, label %94

83:                                               ; preds = %81
  %84 = getelementptr inbounds nuw i8, ptr %0, i64 1576
  %85 = load ptr, ptr %84, align 8, !tbaa !8
  %86 = getelementptr inbounds nuw i8, ptr %85, i64 256
  %87 = lshr i32 %2, 16
  %88 = and i32 %87, 255
  store i32 %88, ptr %86, align 8, !tbaa !22
  %89 = lshr i32 %2, 8
  %90 = and i32 %89, 255
  %91 = getelementptr inbounds nuw i8, ptr %85, i64 260
  store i32 %90, ptr %91, align 4, !tbaa !25
  %92 = and i32 %2, 255
  %93 = getelementptr inbounds nuw i8, ptr %85, i64 264
  store i32 %92, ptr %93, align 8, !tbaa !26
  br label %188

94:                                               ; preds = %81
  %95 = tail call i32 @strcasecmp(ptr noundef %1, ptr noundef nonnull @.str.14) #24
  %.not48 = icmp eq i32 %95, 0
  br i1 %.not48, label %96, label %107

96:                                               ; preds = %94
  %97 = getelementptr inbounds nuw i8, ptr %0, i64 1576
  %98 = load ptr, ptr %97, align 8, !tbaa !8
  %99 = getelementptr inbounds nuw i8, ptr %98, i64 288
  %100 = lshr i32 %2, 16
  %101 = and i32 %100, 255
  store i32 %101, ptr %99, align 8, !tbaa !22
  %102 = lshr i32 %2, 8
  %103 = and i32 %102, 255
  %104 = getelementptr inbounds nuw i8, ptr %98, i64 292
  store i32 %103, ptr %104, align 4, !tbaa !25
  %105 = and i32 %2, 255
  %106 = getelementptr inbounds nuw i8, ptr %98, i64 296
  store i32 %105, ptr %106, align 8, !tbaa !26
  br label %188

107:                                              ; preds = %94
  %108 = tail call i32 @strcasecmp(ptr noundef %1, ptr noundef nonnull @.str.15) #24
  %.not49 = icmp eq i32 %108, 0
  br i1 %.not49, label %109, label %120

109:                                              ; preds = %107
  %110 = getelementptr inbounds nuw i8, ptr %0, i64 1576
  %111 = load ptr, ptr %110, align 8, !tbaa !8
  %112 = getelementptr inbounds nuw i8, ptr %111, i64 320
  %113 = lshr i32 %2, 16
  %114 = and i32 %113, 255
  store i32 %114, ptr %112, align 8, !tbaa !22
  %115 = lshr i32 %2, 8
  %116 = and i32 %115, 255
  %117 = getelementptr inbounds nuw i8, ptr %111, i64 324
  store i32 %116, ptr %117, align 4, !tbaa !25
  %118 = and i32 %2, 255
  %119 = getelementptr inbounds nuw i8, ptr %111, i64 328
  store i32 %118, ptr %119, align 8, !tbaa !26
  br label %188

120:                                              ; preds = %107
  %121 = tail call i32 @strcasecmp(ptr noundef %1, ptr noundef nonnull @.str.16) #24
  %.not50 = icmp eq i32 %121, 0
  br i1 %.not50, label %122, label %133

122:                                              ; preds = %120
  %123 = getelementptr inbounds nuw i8, ptr %0, i64 1576
  %124 = load ptr, ptr %123, align 8, !tbaa !8
  %125 = getelementptr inbounds nuw i8, ptr %124, i64 352
  %126 = lshr i32 %2, 16
  %127 = and i32 %126, 255
  store i32 %127, ptr %125, align 8, !tbaa !22
  %128 = lshr i32 %2, 8
  %129 = and i32 %128, 255
  %130 = getelementptr inbounds nuw i8, ptr %124, i64 356
  store i32 %129, ptr %130, align 4, !tbaa !25
  %131 = and i32 %2, 255
  %132 = getelementptr inbounds nuw i8, ptr %124, i64 360
  store i32 %131, ptr %132, align 8, !tbaa !26
  br label %188

133:                                              ; preds = %120
  %134 = tail call i32 @strcasecmp(ptr noundef %1, ptr noundef nonnull @.str.17) #24
  %.not51 = icmp eq i32 %134, 0
  br i1 %.not51, label %135, label %146

135:                                              ; preds = %133
  %136 = getelementptr inbounds nuw i8, ptr %0, i64 1576
  %137 = load ptr, ptr %136, align 8, !tbaa !8
  %138 = getelementptr inbounds nuw i8, ptr %137, i64 384
  %139 = lshr i32 %2, 16
  %140 = and i32 %139, 255
  store i32 %140, ptr %138, align 8, !tbaa !22
  %141 = lshr i32 %2, 8
  %142 = and i32 %141, 255
  %143 = getelementptr inbounds nuw i8, ptr %137, i64 388
  store i32 %142, ptr %143, align 4, !tbaa !25
  %144 = and i32 %2, 255
  %145 = getelementptr inbounds nuw i8, ptr %137, i64 392
  store i32 %144, ptr %145, align 8, !tbaa !26
  br label %188

146:                                              ; preds = %133
  %147 = tail call i32 @strcasecmp(ptr noundef %1, ptr noundef nonnull @.str.18) #24
  %.not52 = icmp eq i32 %147, 0
  br i1 %.not52, label %148, label %159

148:                                              ; preds = %146
  %149 = getelementptr inbounds nuw i8, ptr %0, i64 1576
  %150 = load ptr, ptr %149, align 8, !tbaa !8
  %151 = getelementptr inbounds nuw i8, ptr %150, i64 416
  %152 = lshr i32 %2, 16
  %153 = and i32 %152, 255
  store i32 %153, ptr %151, align 8, !tbaa !22
  %154 = lshr i32 %2, 8
  %155 = and i32 %154, 255
  %156 = getelementptr inbounds nuw i8, ptr %150, i64 420
  store i32 %155, ptr %156, align 4, !tbaa !25
  %157 = and i32 %2, 255
  %158 = getelementptr inbounds nuw i8, ptr %150, i64 424
  store i32 %157, ptr %158, align 8, !tbaa !26
  br label %188

159:                                              ; preds = %146
  %160 = tail call i32 @strcasecmp(ptr noundef %1, ptr noundef nonnull @.str.19) #24
  %.not53 = icmp eq i32 %160, 0
  br i1 %.not53, label %161, label %172

161:                                              ; preds = %159
  %162 = getelementptr inbounds nuw i8, ptr %0, i64 1576
  %163 = load ptr, ptr %162, align 8, !tbaa !8
  %164 = getelementptr inbounds nuw i8, ptr %163, i64 448
  %165 = lshr i32 %2, 16
  %166 = and i32 %165, 255
  store i32 %166, ptr %164, align 8, !tbaa !22
  %167 = lshr i32 %2, 8
  %168 = and i32 %167, 255
  %169 = getelementptr inbounds nuw i8, ptr %163, i64 452
  store i32 %168, ptr %169, align 4, !tbaa !25
  %170 = and i32 %2, 255
  %171 = getelementptr inbounds nuw i8, ptr %163, i64 456
  store i32 %170, ptr %171, align 8, !tbaa !26
  br label %188

172:                                              ; preds = %159
  %173 = tail call i32 @strcasecmp(ptr noundef %1, ptr noundef nonnull @.str.20) #24
  %.not54 = icmp eq i32 %173, 0
  br i1 %.not54, label %174, label %185

174:                                              ; preds = %172
  %175 = getelementptr inbounds nuw i8, ptr %0, i64 1576
  %176 = load ptr, ptr %175, align 8, !tbaa !8
  %177 = getelementptr inbounds nuw i8, ptr %176, i64 480
  %178 = lshr i32 %2, 16
  %179 = and i32 %178, 255
  store i32 %179, ptr %177, align 8, !tbaa !22
  %180 = lshr i32 %2, 8
  %181 = and i32 %180, 255
  %182 = getelementptr inbounds nuw i8, ptr %176, i64 484
  store i32 %181, ptr %182, align 4, !tbaa !25
  %183 = and i32 %2, 255
  %184 = getelementptr inbounds nuw i8, ptr %176, i64 488
  store i32 %183, ptr %184, align 8, !tbaa !26
  br label %188

185:                                              ; preds = %172
  %186 = load ptr, ptr @stderr, align 8, !tbaa !21
  %187 = tail call i32 (ptr, ptr, ...) @fprintf(ptr noundef %186, ptr noundef nonnull @.str.21, ptr noundef %1) #25
  br label %188

188:                                              ; preds = %18, %44, %70, %96, %122, %148, %174, %185, %161, %135, %109, %83, %57, %31, %5
  ret void
}